target datalayout = "e-m:e-p270:32:32-p271:32:32-p272:64:64-i64:64-i128:128-f80:128-n8:16:32:64-S128"
target triple = "x86_64-pc-linux-gnu"

%struct.bio_st = type { ptr, ptr, ptr, i32, i32, i32, i32, i32, i32, ptr, ptr, i64, i64 }
%struct.BIO_ASN1_BUF_CTX_t = type { i32, ptr, i32, i32, i32, i32, i32, i32, ptr, ptr, ptr, ptr, ptr, i32, i32, ptr }

; Function Attrs: nounwind uwtable
define internal i32 @asn1_bio_flush_ex(ptr noundef %0, ptr noundef %1, ptr noundef %2, i32 noundef %3) #0 {
  %5 = alloca i32, align 4
  %6 = alloca ptr, align 8
  %7 = alloca ptr, align 8
  %8 = alloca ptr, align 8
  %9 = alloca i32, align 4
  %10 = alloca i32, align 4
  %11 = alloca i32, align 4
  store ptr %0, ptr %6, align 8, !tbaa !6
  store ptr %1, ptr %7, align 8, !tbaa !24
  store ptr %2, ptr %8, align 8, !tbaa !11
  store i32 %3, ptr %9, align 4, !tbaa !12
  call void @llvm.lifetime.start.p0(i64 4, ptr %10) #6
  %12 = load ptr, ptr %7, align 8, !tbaa !24
  %13 = getelementptr inbounds nuw %struct.BIO_ASN1_BUF_CTX_t, ptr %12, i32 0, i32 13
  %14 = load i32, ptr %13, align 8, !tbaa !44
  %15 = icmp sle i32 %14, 0
  br i1 %15, label %16, label %17

16:                                               ; preds = %4
  store i32 1, ptr %5, align 4
  store i32 1, ptr %11, align 4
  br label %75

17:                                               ; preds = %4
  br label %18

18:                                               ; preds = %72, %17
  %19 = load ptr, ptr %6, align 8, !tbaa !6
  %20 = getelementptr inbounds nuw %struct.bio_st, ptr %19, i32 0, i32 10
  %21 = load ptr, ptr %20, align 8, !tbaa !19
  %22 = load ptr, ptr %7, align 8, !tbaa !24
  %23 = getelementptr inbounds nuw %struct.BIO_ASN1_BUF_CTX_t, ptr %22, i32 0, i32 12
  %24 = load ptr, ptr %23, align 8, !tbaa !45
  %25 = load ptr, ptr %7, align 8, !tbaa !24
  %26 = getelementptr inbounds nuw %struct.BIO_ASN1_BUF_CTX_t, ptr %25, i32 0, i32 14
  %27 = load i32, ptr %26, align 4, !tbaa !46
  %28 = sext i32 %27 to i64
  %29 = getelementptr inbounds i8, ptr %24, i64 %28
  %30 = load ptr, ptr %7, align 8, !tbaa !24
  %31 = getelementptr inbounds nuw %struct.BIO_ASN1_BUF_CTX_t, ptr %30, i32 0, i32 13
  %32 = load i32, ptr %31, align 8, !tbaa !44
  %33 = call i32 @BIO_write(ptr noundef %21, ptr noundef %29, i32 noundef %32)
  store i32 %33, ptr %10, align 4, !tbaa !12
  %34 = load i32, ptr %10, align 4, !tbaa !12
  %35 = icmp sle i32 %34, 0
  br i1 %35, label %36, label %37

36:                                               ; preds = %18
  br label %73

37:                                               ; preds = %18
  %38 = load i32, ptr %10, align 4, !tbaa !12
  %39 = load ptr, ptr %7, align 8, !tbaa !24
  %40 = getelementptr inbounds nuw %struct.BIO_ASN1_BUF_CTX_t, ptr %39, i32 0, i32 13
  %41 = load i32, ptr %40, align 8, !tbaa !44
  %42 = sub nsw i32 %41, %38
  store i32 %42, ptr %40, align 8, !tbaa !44
  %43 = load ptr, ptr %7, align 8, !tbaa !24
  %44 = getelementptr inbounds nuw %struct.BIO_ASN1_BUF_CTX_t, ptr %43, i32 0, i32 13
  %45 = load i32, ptr %44, align 8, !tbaa !44
  %46 = icmp sgt i32 %45, 0
  br i1 %46, label %47, label %53

47:                                               ; preds = %37
  %48 = load i32, ptr %10, align 4, !tbaa !12
  %49 = load ptr, ptr %7, align 8, !tbaa !24
  %50 = getelementptr inbounds nuw %struct.BIO_ASN1_BUF_CTX_t, ptr %49, i32 0, i32 14
  %51 = load i32, ptr %50, align 4, !tbaa !46
  %52 = add nsw i32 %51, %48
  store i32 %52, ptr %50, align 4, !tbaa !46
  br label %72

53:                                               ; preds = %37
  %54 = load ptr, ptr %8, align 8, !tbaa !11
  %55 = icmp ne ptr %54, null
  br i1 %55, label %56, label %66

56:                                               ; preds = %53
  %57 = load ptr, ptr %8, align 8, !tbaa !11
  %58 = load ptr, ptr %6, align 8, !tbaa !6
  %59 = load ptr, ptr %7, align 8, !tbaa !24
  %60 = getelementptr inbounds nuw %struct.BIO_ASN1_BUF_CTX_t, ptr %59, i32 0, i32 12
  %61 = load ptr, ptr %7, align 8, !tbaa !24
  %62 = getelementptr inbounds nuw %struct.BIO_ASN1_BUF_CTX_t, ptr %61, i32 0, i32 13
  %63 = load ptr, ptr %7, align 8, !tbaa !24
  %64 = getelementptr inbounds nuw %struct.BIO_ASN1_BUF_CTX_t, ptr %63, i32 0, i32 15
  %65 = call i32 %57(ptr noundef %58, ptr noundef %60, ptr noundef %62, ptr noundef %64)
  br label %66

66:                                               ; preds = %56, %53
  %67 = load i32, ptr %9, align 4, !tbaa !12
  %68 = load ptr, ptr %7, align 8, !tbaa !24
  %69 = getelementptr inbounds nuw %struct.BIO_ASN1_BUF_CTX_t, ptr %68, i32 0, i32 0
  store i32 %67, ptr %69, align 8, !tbaa !26
  %70 = load ptr, ptr %7, align 8, !tbaa !24
  %71 = getelementptr inbounds nuw %struct.BIO_ASN1_BUF_CTX_t, ptr %70, i32 0, i32 14
  store i32 0, ptr %71, align 4, !tbaa !46
  br label %73

72:                                               ; preds = %47
  br label %18

73:                                               ; preds = %66, %36
  %74 = load i32, ptr %10, align 4, !tbaa !12
  store i32 %74, ptr %5, align 4
  store i32 1, ptr %11, align 4
  br label %75

75:                                               ; preds = %73, %16
  call void @llvm.lifetime.end.p0(i64 4, ptr %10) #6
  %76 = load i32, ptr %5, align 4
  ret i32 %76
}