; Function Attrs: nounwind uwtable
define internal fastcc i32 @asn1_bio_flush_ex(ptr noundef %0, ptr noundef nonnull %1, ptr noundef readonly captures(address_is_null) %2, i32 noundef range(i32 2, 7) %3) unnamed_addr #1 {
  %5 = getelementptr inbounds nuw i8, ptr %1, i64 80
  %6 = load i32, ptr %5, align 8, !tbaa !24
  %7 = icmp slt i32 %6, 1
  br i1 %7, label %.loopexit, label %.preheader

.preheader:                                       ; preds = %4
  %8 = getelementptr inbounds nuw i8, ptr %0, i64 56
  %9 = getelementptr inbounds nuw i8, ptr %1, i64 72
  %10 = getelementptr inbounds nuw i8, ptr %1, i64 84
  %11 = load ptr, ptr %8, align 8, !tbaa !13
  %12 = load ptr, ptr %9, align 8, !tbaa !26
  %13 = load i32, ptr %10, align 4, !tbaa !27
  %14 = sext i32 %13 to i64
  %15 = getelementptr inbounds i8, ptr %12, i64 %14
  %16 = tail call i32 @BIO_write(ptr noundef %11, ptr noundef %15, i32 noundef %6) #11
  %17 = icmp slt i32 %16, 1
  br i1 %17, label %.loopexit, label %.lr.ph

.lr.ph:                                           ; preds = %.preheader, %22
  %18 = phi i32 [ %29, %22 ], [ %16, %.preheader ]
  %19 = load i32, ptr %5, align 8, !tbaa !24
  %20 = sub nsw i32 %19, %18
  store i32 %20, ptr %5, align 8, !tbaa !24
  %21 = icmp sgt i32 %20, 0
  br i1 %21, label %22, label %31

22:                                               ; preds = %.lr.ph
  %23 = load i32, ptr %10, align 4, !tbaa !27
  %24 = add nsw i32 %23, %18
  store i32 %24, ptr %10, align 4, !tbaa !27
  %25 = load ptr, ptr %8, align 8, !tbaa !13
  %26 = load ptr, ptr %9, align 8, !tbaa !26
  %27 = sext i32 %24 to i64
  %28 = getelementptr inbounds i8, ptr %26, i64 %27
  %29 = tail call i32 @BIO_write(ptr noundef %25, ptr noundef %28, i32 noundef %20) #11
  %30 = icmp slt i32 %29, 1
  br i1 %30, label %.loopexit, label %.lr.ph

31:                                               ; preds = %.lr.ph
  %.not = icmp eq ptr %2, null
  br i1 %.not, label %35, label %32

32:                                               ; preds = %31
  %33 = getelementptr inbounds nuw i8, ptr %1, i64 88
  %34 = tail call i32 %2(ptr noundef nonnull %0, ptr noundef nonnull %9, ptr noundef nonnull %5, ptr noundef nonnull %33) #11
  br label %35

35:                                               ; preds = %32, %31
  store i32 %3, ptr %1, align 8, !tbaa !21
  store i32 0, ptr %10, align 4, !tbaa !27
  br label %.loopexit

.loopexit:                                        ; preds = %22, %.preheader, %35, %4
  %.0 = phi i32 [ 1, %4 ], [ %18, %35 ], [ %16, %.preheader ], [ %29, %22 ]
  ret i32 %.0
}